ccopy_reg
_reconstructor
p0
(cnltk.classify.naivebayes
NaiveBayesClassifier
p1
c__builtin__
object
p2
Ntp3
Rp4
(dp5
S'_labels'
p6
(lp7
S'Neg'
p8
aS'Neutr'
p9
aS'Pos'
p10
aS'na'
p11
asS'_feature_probdist'
p12
(dp13
(g10
S'numberofpos'
p14
tp15
g0
(cnltk.probability
ELEProbDist
p16
g2
Ntp17
Rp18
(dp19
S'_gamma'
p20
F0.5
sS'_N'
p21
I29
sS'_freqdist'
p22
g0
(cnltk.probability
FreqDist
p23
c__builtin__
dict
p24
(dp25
I0
I13
sI1
I12
sI2
I2
sI9
I2
stp26
Rp27
(dp28
g21
I29
sS'_max_cache'
p29
NsS'_item_cache'
p30
NsS'_Nr_cache'
p31
NsbsS'_bins'
p32
I18
sS'_divisor'
p33
F38.0
sbs(g8
g14
tp34
g0
(g16
g2
Ntp35
Rp36
(dp37
g20
F0.5
sg21
I167
sg22
g0
(g23
g24
(dp38
I0
I63
sI1
I24
sI2
I11
sI3
I9
sI4
I7
sI5
I10
sI6
I5
sI7
I5
sI8
I5
sI9
I3
sI10
I9
sI12
I4
sI14
I3
sI19
I5
sI24
I2
sI76
I2
stp39
Rp40
(dp41
g21
I167
sg29
Nsg30
Nsg31
Nsbsg32
I18
sg33
F176.0
sbs(g8
S'numberofneg'
p42
tp43
g0
(g16
g2
Ntp44
Rp45
(dp46
g20
F0.5
sg21
I167
sg22
g0
(g23
g24
(dp47
I0
I34
sI1
I33
sI2
I15
sI3
I6
sI4
I13
sI5
I17
sI6
I5
sI8
I11
sI9
I5
sI11
I8
sI77
I2
sI14
I3
sI15
I2
sI16
I4
sI17
I2
sI21
I2
sI26
I3
sI33
I2
stp48
Rp49
(dp50
g21
I167
sg29
Nsg30
Nsg31
Nsbsg32
I22
sg33
F178.0
sbs(g8
S'emotoPuncNum'
p51
tp52
g0
(g16
g2
Ntp53
Rp54
(dp55
g20
F0.5
sg21
I167
sg22
g0
(g23
g24
(dp56
I1
I127
sI2
I24
sNI16
stp57
Rp58
(dp59
g21
I167
sg29
Nsg30
Nsg31
Nsbsg32
I4
sg33
F169.0
sbs(g9
g14
tp60
g0
(g16
g2
Ntp61
Rp62
(dp63
g20
F0.5
sg21
I158
sg22
g0
(g23
g24
(dp64
I0
I80
sI1
I32
sI2
I14
sI3
I19
sI4
I2
sI6
I7
sI9
I2
sI22
I2
stp65
Rp66
(dp67
g21
I158
sg29
Nsg30
Nsg31
Nsbsg32
I18
sg33
F167.0
sbs(g8
S'adjnumber'
p68
tp69
g0
(g16
g2
Ntp70
Rp71
(dp72
g20
F0.5
sg21
I167
sg22
g0
(g23
g24
(dp73
I0
I51
sI1
I28
sI2
I19
sI3
I6
sI4
I6
sI5
I11
sI6
I8
sI7
I5
sI8
I5
sI9
I5
sI12
I3
sI13
I6
sI15
I2
sI16
I3
sI18
I2
sI69
I2
sI38
I3
sI39
I2
stp74
Rp75
(dp76
g21
I167
sg29
Nsg30
Nsg31
Nsbsg32
I20
sg33
F177.0
sbs(g10
g42
tp77
g0
(g16
g2
Ntp78
Rp79
(dp80
g20
F0.5
sg21
I29
sg22
g0
(g23
g24
(dp81
I0
I18
sI1
I3
sI2
I2
sI4
I2
sI5
I2
sI16
I2
stp82
Rp83
(dp84
g21
I29
sg29
Nsg30
Nsg31
Nsbsg32
I22
sg33
F40.0
sbs(S'Pos'
p85
g51
tp86
g0
(g16
g2
Ntp87
Rp88
(dp89
g20
F0.5
sg21
I29
sg22
g0
(g23
g24
(dp90
I1
I18
sI2
I2
sI3
I2
sNI7
stp91
Rp92
(dp93
g21
I29
sg29
Nsg30
Nsg31
Nsbsg32
I4
sg33
F31.0
sbs(g10
g68
tp94
g0
(g16
g2
Ntp95
Rp96
(dp97
g20
F0.5
sg21
I29
sg22
g0
(g23
g24
(dp98
I0
I10
sI1
I10
sI2
I3
sI3
I2
sI5
I2
sI13
I2
stp99
Rp100
(dp101
g21
I29
sg29
Nsg30
Nsg31
Nsbsg32
I20
sg33
F39.0
sbs(g11
g68
tp102
g0
(g16
g2
Ntp103
Rp104
(dp105
g20
F0.5
sg21
I2
sg22
g0
(g23
g24
(dp106
I3
I2
stp107
Rp108
(dp109
g21
I2
sg29
Nsg30
Nsg31
Nsbsg32
I20
sg33
F12.0
sbs(g9
g51
tp110
g0
(g16
g2
Ntp111
Rp112
(dp113
g20
F0.5
sg21
I158
sg22
g0
(g23
g24
(dp114
I1
I132
sI2
I14
sI3
I2
sNI10
stp115
Rp116
(dp117
g21
I158
sg29
Nsg30
Nsg31
Nsbsg32
I4
sg33
F160.0
sbs(g9
g42
tp118
g0
(g16
g2
Ntp119
Rp120
(dp121
g20
F0.5
sg21
I158
sg22
g0
(g23
g24
(dp122
I0
I69
sI1
I52
sI2
I5
sI3
I11
sI4
I2
sI5
I6
sI6
I2
sI7
I2
sI8
I2
sI9
I3
sI13
I2
sI28
I2
stp123
Rp124
(dp125
g21
I158
sg29
Nsg30
Nsg31
Nsbsg32
I22
sg33
F169.0
sbs(g11
g42
tp126
g0
(g16
g2
Ntp127
Rp128
(dp129
g20
F0.5
sg21
I2
sg22
g0
(g23
g24
(dp130
I5
I2
stp131
Rp132
(dp133
g21
I2
sg29
Nsg30
Nsg31
Nsbsg32
I22
sg33
F13.0
sbs(g9
g68
tp134
g0
(g16
g2
Ntp135
Rp136
(dp137
g20
F0.5
sg21
I158
sg22
g0
(g23
g24
(dp138
I0
I75
sI1
I40
sI2
I13
sI3
I8
sI5
I3
sI6
I8
sI7
I2
sI8
I5
sI9
I2
sI37
I2
stp139
Rp140
(dp141
g21
I158
sg29
Nsg30
Nsg31
Nsbsg32
I20
sg33
F168.0
sbs(g11
g51
tp142
g0
(g16
g2
Ntp143
Rp144
(dp145
g20
F0.5
sg21
I2
sg22
g0
(g23
g24
(dp146
I1
I2
stp147
Rp148
(dp149
g21
I2
sg29
Nsg30
Nsg31
Nsbsg32
I4
sg33
F4.0
sbs(g11
g14
tp150
g0
(g16
g2
Ntp151
Rp152
(dp153
g20
F0.5
sg21
I2
sg22
g0
(g23
g24
(dp154
I5
I2
stp155
Rp156
(dp157
g21
I2
sg29
Nsg30
Nsg31
Nsbsg32
I18
sg33
F11.0
sbssS'_label_probdist'
p158
g0
(g16
g2
Ntp159
Rp160
(dp161
g20
F0.5
sg21
I356
sg22
g0
(g23
g24
(dp162
g8
I167
sg9
I158
sg10
I29
sg11
I2
stp163
Rp164
(dp165
g21
I356
sg29
Nsg30
(lp166
(g8
I167
tp167
a(g9
I158
tp168
a(g10
I29
tp169
a(g11
I2
tp170
asg31
Nsbsg32
I4
sg33
F358.0
sbsb.